; ModuleID = 'source-C-CXX/2/2392.c'
source_filename = "source-C-CXX/2/2392.c"
target datalayout = "e-m:e-p270:32:32-p271:32:32-p272:64:64-i64:64-f80:128-n8:16:32:64-S128"
target triple = "x86_64-pc-linux-gnu"

@.str = private unnamed_addr constant [6 x i8] c"%d %d\00", align 1
@.str.1 = private unnamed_addr constant [3 x i8] c"%d\00", align 1
@.str.2 = private unnamed_addr constant [4 x i8] c"yes\00", align 1
@.str.3 = private unnamed_addr constant [3 x i8] c"no\00", align 1

; Function Attrs: nofree nounwind sspstrong uwtable
define dso_local i32 @main() local_unnamed_addr #0 {
  %1 = alloca i32, align 4
  %2 = alloca i32, align 4
  %3 = alloca [1000 x i32], align 16
  %4 = bitcast i32* %1 to i8*
  call void @llvm.lifetime.start.p0i8(i64 4, i8* nonnull %4) #3
  %5 = bitcast i32* %2 to i8*
  call void @llvm.lifetime.start.p0i8(i64 4, i8* nonnull %5) #3
  %6 = bitcast [1000 x i32]* %3 to i8*
  call void @llvm.lifetime.start.p0i8(i64 4000, i8* nonnull %6) #3
  %7 = call i32 (i8*, ...) @__isoc99_scanf(i8* getelementptr inbounds ([6 x i8], [6 x i8]* @.str, i64 0, i64 0), i32* nonnull %1, i32* nonnull %2)
  %8 = load i32, i32* %1, align 4, !tbaa !5
  %9 = icmp sgt i32 %8, 0
  br i1 %9, label %10, label %18

10:                                               ; preds = %0, %10
  %11 = phi i64 [ %14, %10 ], [ 0, %0 ]
  %12 = getelementptr inbounds [1000 x i32], [1000 x i32]* %3, i64 0, i64 %11
  %13 = call i32 (i8*, ...) @__isoc99_scanf(i8* getelementptr inbounds ([3 x i8], [3 x i8]* @.str.1, i64 0, i64 0), i32* nonnull %12)
  %14 = add nuw nsw i64 %11, 1
  %15 = load i32, i32* %1, align 4, !tbaa !5
  %16 = sext i32 %15 to i64
  %17 = icmp slt i64 %14, %16
  br i1 %17, label %10, label %18, !llvm.loop !9

18:                                               ; preds = %10, %0
  %19 = phi i32 [ %8, %0 ], [ %15, %10 ]
  br label %20

20:                                               ; preds = %18, %49
  %21 = phi i32 [ %50, %49 ], [ %19, %18 ]
  %22 = phi i64 [ %28, %49 ], [ 0, %18 ]
  %23 = phi i64 [ %53, %49 ], [ 1, %18 ]
  %24 = add nsw i32 %21, -1
  %25 = sext i32 %24 to i64
  %26 = icmp slt i64 %22, %25
  br i1 %26, label %27, label %56

27:                                               ; preds = %20
  %28 = add nuw nsw i64 %22, 1
  %29 = load i32, i32* %2, align 4
  %30 = trunc i64 %28 to i32
  %31 = icmp sgt i32 %21, %30
  br i1 %31, label %32, label %49

32:                                               ; preds = %27
  %33 = getelementptr inbounds [1000 x i32], [1000 x i32]* %3, i64 0, i64 %22
  %34 = load i32, i32* %33, align 4, !tbaa !5
  br label %35

35:                                               ; preds = %32, %45
  %36 = phi i64 [ %23, %32 ], [ %46, %45 ]
  %37 = getelementptr inbounds [1000 x i32], [1000 x i32]* %3, i64 0, i64 %36
  %38 = load i32, i32* %37, align 4, !tbaa !5
  %39 = add nsw i32 %38, %34
  %40 = icmp eq i32 %39, %29
  br i1 %40, label %41, label %45

41:                                               ; preds = %35
  %42 = trunc i64 %36 to i32
  %43 = call i32 (i8*, ...) @printf(i8* nonnull dereferenceable(1) getelementptr inbounds ([4 x i8], [4 x i8]* @.str.2, i64 0, i64 0))
  %44 = load i32, i32* %1, align 4, !tbaa !5
  br label %49

45:                                               ; preds = %35
  %46 = add nuw nsw i64 %36, 1
  %47 = trunc i64 %46 to i32
  %48 = icmp eq i32 %21, %47
  br i1 %48, label %49, label %35, !llvm.loop !11

49:                                               ; preds = %45, %27, %41
  %50 = phi i32 [ %44, %41 ], [ %21, %27 ], [ %21, %45 ]
  %51 = phi i32 [ %42, %41 ], [ %30, %27 ], [ %21, %45 ]
  %52 = icmp slt i32 %51, %50
  %53 = add nuw nsw i64 %23, 1
  br i1 %52, label %54, label %20, !llvm.loop !12

54:                                               ; preds = %49
  %55 = add nsw i32 %50, -1
  br label %56

56:                                               ; preds = %20, %54
  %57 = phi i32 [ %55, %54 ], [ %24, %20 ]
  %58 = trunc i64 %22 to i32
  %59 = icmp eq i32 %57, %58
  br i1 %59, label %60, label %62

60:                                               ; preds = %56
  %61 = call i32 (i8*, ...) @printf(i8* nonnull dereferenceable(1) getelementptr inbounds ([3 x i8], [3 x i8]* @.str.3, i64 0, i64 0))
  br label %62

62:                                               ; preds = %60, %56
  call void @llvm.lifetime.end.p0i8(i64 4000, i8* nonnull %6) #3
  call void @llvm.lifetime.end.p0i8(i64 4, i8* nonnull %5) #3
  call void @llvm.lifetime.end.p0i8(i64 4, i8* nonnull %4) #3
  ret i32 0
}

; Function Attrs: argmemonly mustprogress nofree nosync nounwind willreturn
declare void @llvm.lifetime.start.p0i8(i64 immarg, i8* nocapture) #1

; Function Attrs: nofree nounwind
declare noundef i32 @__isoc99_scanf(i8* nocapture noundef readonly, ...) local_unnamed_addr #2

; Function Attrs: argmemonly mustprogress nofree nosync nounwind willreturn
declare void @llvm.lifetime.end.p0i8(i64 immarg, i8* nocapture) #1

; Function Attrs: nofree nounwind
declare noundef i32 @printf(i8* nocapture noundef readonly, ...) local_unnamed_addr #2


!llvm.module.flags = !{!0, !1, !2, !3}
!llvm.ident = !{!4}

!0 = !{i32 1, !"wchar_size", i32 4}
!1 = !{i32 7, !"PIC Level", i32 2}
!2 = !{i32 7, !"PIE Level", i32 2}
!3 = !{i32 7, !"uwtable", i32 1}
!4 = !{!"clang version 13.0.0"}
!5 = !{!6, !6, i64 0}
!6 = !{!"int", !7, i64 0}
!7 = !{!"omnipotent char", !8, i64 0}
!8 = !{!"Simple C/C++ TBAA"}
!9 = distinct !{!9, !10}
!10 = !{!"llvm.loop.mustprogress"}
!11 = distinct !{!11, !10}
!12 = distinct !{!12, !10}
